target datalayout = "e-m:e-p270:32:32-p271:32:32-p272:64:64-i64:64-i128:128-f80:128-n8:16:32:64-S128"
target triple = "x86_64-pc-linux-gnu"

%"class.facebook::yoga::Node" = type { i8, ptr, ptr, ptr, ptr, %"class.facebook::yoga::Style", %"struct.facebook::yoga::LayoutResults", i64, i64, ptr, %"class.std::vector", ptr, %"struct.std::array.8" }
%"class.facebook::yoga::Style" = type { i32, %"class.facebook::yoga::StyleValueHandle", %"class.facebook::yoga::StyleValueHandle", %"class.facebook::yoga::StyleValueHandle", %"class.facebook::yoga::StyleValueHandle", %"struct.std::array", %"struct.std::array", %"struct.std::array", %"struct.std::array", %"struct.std::array.0", %"struct.std::array.1", %"struct.std::array.1", %"struct.std::array.1", %"class.facebook::yoga::StyleValueHandle", %"class.facebook::yoga::StyleValuePool" }
%"struct.std::array" = type { [9 x %"class.facebook::yoga::StyleValueHandle"] }
%"struct.std::array.0" = type { [3 x %"class.facebook::yoga::StyleValueHandle"] }
%"struct.std::array.1" = type { [2 x %"class.facebook::yoga::StyleValueHandle"] }
%"class.facebook::yoga::StyleValueHandle" = type { i16 }
%"class.facebook::yoga::StyleValuePool" = type { %"class.facebook::yoga::SmallValueBuffer" }
%"class.facebook::yoga::SmallValueBuffer" = type { i16, %"struct.std::array.2", %"class.std::bitset", %"class.std::unique_ptr" }
%"struct.std::array.2" = type { [4 x i32] }
%"class.std::bitset" = type { %"struct.std::_Base_bitset" }
%"struct.std::_Base_bitset" = type { i64 }
%"class.std::unique_ptr" = type { %"struct.std::__uniq_ptr_data" }
%"struct.std::__uniq_ptr_data" = type { %"class.std::__uniq_ptr_impl" }
%"class.std::__uniq_ptr_impl" = type { %"class.std::tuple" }
%"class.std::tuple" = type { %"struct.std::_Tuple_impl" }
%"struct.std::_Tuple_impl" = type { %"struct.std::_Head_base.4" }
%"struct.std::_Head_base.4" = type { ptr }
%"struct.facebook::yoga::LayoutResults" = type { i32, %"struct.facebook::yoga::FloatOptional", i32, i32, i8, i32, %"struct.std::array.5", %"struct.facebook::yoga::CachedMeasurement", i8, %"struct.std::array.6", %"struct.std::array.6", %"struct.std::array.7", %"struct.std::array.7", %"struct.std::array.7", %"struct.std::array.7" }
%"struct.facebook::yoga::FloatOptional" = type { float }
%"struct.std::array.5" = type { [8 x %"struct.facebook::yoga::CachedMeasurement"] }
%"struct.facebook::yoga::CachedMeasurement" = type { float, float, i32, i32, float, float }
%"struct.std::array.6" = type { [2 x float] }
%"struct.std::array.7" = type { [4 x float] }
%"class.std::vector" = type { %"struct.std::_Vector_base" }
%"struct.std::_Vector_base" = type { %"struct.std::_Vector_base<facebook::yoga::Node *, std::allocator<facebook::yoga::Node *>>::_Vector_impl" }
%"struct.std::_Vector_base<facebook::yoga::Node *, std::allocator<facebook::yoga::Node *>>::_Vector_impl" = type { %"struct.std::_Vector_base<facebook::yoga::Node *, std::allocator<facebook::yoga::Node *>>::_Vector_impl_data" }
%"struct.std::_Vector_base<facebook::yoga::Node *, std::allocator<facebook::yoga::Node *>>::_Vector_impl_data" = type { ptr, ptr, ptr }
%"struct.std::array.8" = type { [2 x %"class.facebook::yoga::StyleSizeLength"] }
%"class.facebook::yoga::StyleSizeLength" = type <{ %"struct.facebook::yoga::FloatOptional", i8, [3 x i8] }>
%"class.std::initializer_list" = type { ptr, i64 }

; Function Attrs: mustprogress nounwind uwtable
define linkonce_odr hidden noundef zeroext i1 @_ZN8facebook4yoga11isUndefinedITkSt14floating_pointfEEbT_(float noundef %0) #7 comdat {
  %2 = alloca float, align 4
  store float %0, ptr %2, align 4, !tbaa !81
  %3 = load float, ptr %2, align 4, !tbaa !81
  %4 = load float, ptr %2, align 4, !tbaa !81
  %5 = fcmp une float %3, %4
  ret i1 %5
}

; Function Attrs: inlinehint mustprogress nounwind uwtable
define linkonce_odr noundef float @_ZSt3absf(float noundef %0) #6 comdat {
  %2 = alloca float, align 4
  store float %0, ptr %2, align 4, !tbaa !81
  %3 = load float, ptr %2, align 4, !tbaa !81
  %4 = call float @llvm.fabs.f32(float %3)
  ret float %4
}

; Function Attrs: mustprogress nounwind uwtable
define linkonce_odr hidden noundef zeroext i1 @_ZN8facebook4yoga9isDefinedITkSt14floating_pointfEEbT_(float noundef %0) #7 comdat {
  %2 = alloca float, align 4
  store float %0, ptr %2, align 4, !tbaa !81
  %3 = load float, ptr %2, align 4, !tbaa !81
  %4 = call noundef zeroext i1 @_ZN8facebook4yoga11isUndefinedITkSt14floating_pointfEEbT_(float noundef %3)
  %5 = xor i1 %4, true
  ret i1 %5
}

; Function Attrs: inlinehint mustprogress uwtable
define linkonce_odr hidden noundef zeroext i1 @_ZN8facebook4yoga13inexactEqualsEff(float noundef %0, float noundef %1) #5 comdat {
  %3 = alloca i1, align 1
  %4 = alloca float, align 4
  %5 = alloca float, align 4
  store float %0, ptr %4, align 4, !tbaa !81
  store float %1, ptr %5, align 4, !tbaa !81
  %6 = load float, ptr %4, align 4, !tbaa !81
  %7 = call noundef zeroext i1 @_ZN8facebook4yoga9isDefinedITkSt14floating_pointfEEbT_(float noundef %6)
  br i1 %7, label %8, label %17

8:                                                ; preds = %2
  %9 = load float, ptr %5, align 4, !tbaa !81
  %10 = call noundef zeroext i1 @_ZN8facebook4yoga9isDefinedITkSt14floating_pointfEEbT_(float noundef %9)
  br i1 %10, label %11, label %17

11:                                               ; preds = %8
  %12 = load float, ptr %4, align 4, !tbaa !81
  %13 = load float, ptr %5, align 4, !tbaa !81
  %14 = fsub float %12, %13
  %15 = call noundef float @_ZSt3absf(float noundef %14)
  %16 = fcmp olt float %15, 0x3F1A36E2E0000000
  store i1 %16, ptr %3, align 1
  br label %25

17:                                               ; preds = %8, %2
  %18 = load float, ptr %4, align 4, !tbaa !81
  %19 = call noundef zeroext i1 @_ZN8facebook4yoga11isUndefinedITkSt14floating_pointfEEbT_(float noundef %18)
  br i1 %19, label %20, label %23

20:                                               ; preds = %17
  %21 = load float, ptr %5, align 4, !tbaa !81
  %22 = call noundef zeroext i1 @_ZN8facebook4yoga11isUndefinedITkSt14floating_pointfEEbT_(float noundef %21)
  br label %23

23:                                               ; preds = %20, %17
  %24 = phi i1 [ false, %17 ], [ %22, %20 ]
  store i1 %24, ptr %3, align 1
  br label %25

25:                                               ; preds = %23, %11
  %26 = load i1, ptr %3, align 1
  ret i1 %26
}

; Function Attrs: mustprogress nounwind uwtable
define linkonce_odr hidden noundef float @_ZNK8facebook4yoga13FloatOptional6unwrapEv(ptr noundef nonnull align 4 dereferenceable(4) %0) #7 comdat align 2 {
  %2 = alloca ptr, align 8
  store ptr %0, ptr %2, align 8, !tbaa !135
  %3 = load ptr, ptr %2, align 8
  %4 = getelementptr inbounds nuw %"struct.facebook::yoga::FloatOptional", ptr %3, i32 0, i32 0
  %5 = load float, ptr %4, align 4, !tbaa !137
  ret float %5
}

; Function Attrs: inlinehint mustprogress uwtable
define linkonce_odr hidden noundef zeroext i1 @_ZN8facebook4yoga13inexactEqualsENS0_13FloatOptionalES1_(float %0, float %1) #5 comdat {
  %3 = alloca %"struct.facebook::yoga::FloatOptional", align 4
  %4 = alloca %"struct.facebook::yoga::FloatOptional", align 4
  %5 = getelementptr inbounds nuw %"struct.facebook::yoga::FloatOptional", ptr %3, i32 0, i32 0
  store float %0, ptr %5, align 4
  %6 = getelementptr inbounds nuw %"struct.facebook::yoga::FloatOptional", ptr %4, i32 0, i32 0
  store float %1, ptr %6, align 4
  %7 = call noundef float @_ZNK8facebook4yoga13FloatOptional6unwrapEv(ptr noundef nonnull align 4 dereferenceable(4) %3)
  %8 = call noundef float @_ZNK8facebook4yoga13FloatOptional6unwrapEv(ptr noundef nonnull align 4 dereferenceable(4) %4)
  %9 = call noundef zeroext i1 @_ZN8facebook4yoga13inexactEqualsEff(float noundef %7, float noundef %8)
  ret i1 %9
}

; Function Attrs: mustprogress nounwind uwtable
define linkonce_odr hidden noundef nonnull align 4 dereferenceable(5) ptr @_ZNSt14__array_traitsIN8facebook4yoga15StyleSizeLengthELm2EE6_S_refERA2_KS2_m(ptr noundef nonnull align 4 dereferenceable(16) %0, i64 noundef %1) #7 comdat align 2 {
  %3 = alloca ptr, align 8
  %4 = alloca i64, align 8
  store ptr %0, ptr %3, align 8, !tbaa !131
  store i64 %1, ptr %4, align 8, !tbaa !108
  %5 = load ptr, ptr %3, align 8, !tbaa !131
  %6 = load i64, ptr %4, align 8, !tbaa !108
  %7 = getelementptr inbounds nuw [2 x %"class.facebook::yoga::StyleSizeLength"], ptr %5, i64 0, i64 %6
  ret ptr %7
}

; Function Attrs: mustprogress uwtable
define linkonce_odr hidden noundef zeroext i1 @_ZNK8facebook4yoga15StyleSizeLength13inexactEqualsERKS1_(ptr noundef nonnull align 4 dereferenceable(5) %0, ptr noundef nonnull align 4 dereferenceable(5) %1) #4 comdat align 2 {
  %3 = alloca ptr, align 8
  %4 = alloca ptr, align 8
  %5 = alloca %"struct.facebook::yoga::FloatOptional", align 4
  %6 = alloca %"struct.facebook::yoga::FloatOptional", align 4
  store ptr %0, ptr %3, align 8, !tbaa !131
  store ptr %1, ptr %4, align 8, !tbaa !131
  %7 = load ptr, ptr %3, align 8
  %8 = getelementptr inbounds nuw %"class.facebook::yoga::StyleSizeLength", ptr %7, i32 0, i32 1
  %9 = load i8, ptr %8, align 4, !tbaa !133
  %10 = load ptr, ptr %4, align 8, !tbaa !131
  %11 = getelementptr inbounds nuw %"class.facebook::yoga::StyleSizeLength", ptr %10, i32 0, i32 1
  %12 = load i8, ptr %11, align 4, !tbaa !133
  %13 = icmp eq i8 %9, %12
  br i1 %13, label %14, label %23

14:                                               ; preds = %2
  %15 = getelementptr inbounds nuw %"class.facebook::yoga::StyleSizeLength", ptr %7, i32 0, i32 0
  call void @llvm.memcpy.p0.p0.i64(ptr align 4 %5, ptr align 4 %15, i64 4, i1 false), !tbaa.struct !124
  %16 = load ptr, ptr %4, align 8, !tbaa !131
  %17 = getelementptr inbounds nuw %"class.facebook::yoga::StyleSizeLength", ptr %16, i32 0, i32 0
  call void @llvm.memcpy.p0.p0.i64(ptr align 4 %6, ptr align 4 %17, i64 4, i1 false), !tbaa.struct !124
  %18 = getelementptr inbounds nuw %"struct.facebook::yoga::FloatOptional", ptr %5, i32 0, i32 0
  %19 = load float, ptr %18, align 4
  %20 = getelementptr inbounds nuw %"struct.facebook::yoga::FloatOptional", ptr %6, i32 0, i32 0
  %21 = load float, ptr %20, align 4
  %22 = call noundef zeroext i1 @_ZN8facebook4yoga13inexactEqualsENS0_13FloatOptionalES1_(float %19, float %21)
  br label %23

23:                                               ; preds = %14, %2
  %24 = phi i1 [ false, %2 ], [ %22, %14 ]
  ret i1 %24
}

; Function Attrs: mustprogress nounwind uwtable
define linkonce_odr hidden noundef zeroext i1 @_ZNK8facebook4yoga15StyleSizeLength11isUndefinedEv(ptr noundef nonnull align 4 dereferenceable(5) %0) #7 comdat align 2 {
  %2 = alloca ptr, align 8
  store ptr %0, ptr %2, align 8, !tbaa !131
  %3 = load ptr, ptr %2, align 8
  %4 = getelementptr inbounds nuw %"class.facebook::yoga::StyleSizeLength", ptr %3, i32 0, i32 1
  %5 = load i8, ptr %4, align 4, !tbaa !133
  %6 = icmp eq i8 %5, 0
  ret i1 %6
}

; Function Attrs: mustprogress nounwind uwtable
define linkonce_odr hidden noundef i64 @_ZNKSt16initializer_listIN8facebook4yoga9DimensionEE4sizeEv(ptr noundef nonnull align 8 dereferenceable(16) %0) #7 comdat align 2 {
  %2 = alloca ptr, align 8
  store ptr %0, ptr %2, align 8, !tbaa !141
  %3 = load ptr, ptr %2, align 8
  %4 = getelementptr inbounds nuw %"class.std::initializer_list", ptr %3, i32 0, i32 1
  %5 = load i64, ptr %4, align 8, !tbaa !140
  ret i64 %5
}

; Function Attrs: mustprogress nounwind uwtable
define linkonce_odr hidden noundef nonnull align 4 dereferenceable(5) ptr @_ZNSt5arrayIN8facebook4yoga15StyleSizeLengthELm2EEixEm(ptr noundef nonnull align 4 dereferenceable(16) %0, i64 noundef %1) #7 comdat align 2 {
  %3 = alloca ptr, align 8
  %4 = alloca i64, align 8
  store ptr %0, ptr %3, align 8, !tbaa !143
  store i64 %1, ptr %4, align 8, !tbaa !108
  %5 = load ptr, ptr %3, align 8
  %6 = getelementptr inbounds nuw %"struct.std::array.8", ptr %5, i32 0, i32 0
  %7 = load i64, ptr %4, align 8, !tbaa !108
  %8 = call noundef nonnull align 4 dereferenceable(5) ptr @_ZNSt14__array_traitsIN8facebook4yoga15StyleSizeLengthELm2EE6_S_refERA2_KS2_m(ptr noundef nonnull align 4 dereferenceable(16) %6, i64 noundef %7) #3
  ret ptr %8
}

; Function Attrs: mustprogress nounwind uwtable
define linkonce_odr hidden noundef zeroext i8 @_ZN8facebook4yoga13to_underlyingITkNS0_11EnumerationENS0_9DimensionEEEDaT_(i8 noundef zeroext %0) #7 comdat {
  %2 = alloca i8, align 1
  store i8 %0, ptr %2, align 1, !tbaa !104
  %3 = load i8, ptr %2, align 1, !tbaa !104
  ret i8 %3
}

; Function Attrs: inlinehint mustprogress uwtable
define linkonce_odr hidden noundef zeroext i1 @_ZN8facebook4yoga13inexactEqualsERKNS0_15StyleSizeLengthES3_(ptr noundef nonnull align 4 dereferenceable(5) %0, ptr noundef nonnull align 4 dereferenceable(5) %1) #5 comdat {
  %3 = alloca ptr, align 8
  %4 = alloca ptr, align 8
  store ptr %0, ptr %3, align 8, !tbaa !131
  store ptr %1, ptr %4, align 8, !tbaa !131
  %5 = load ptr, ptr %3, align 8, !tbaa !131
  %6 = load ptr, ptr %4, align 8, !tbaa !131
  %7 = call noundef zeroext i1 @_ZNK8facebook4yoga15StyleSizeLength13inexactEqualsERKS1_(ptr noundef nonnull align 4 dereferenceable(5) %5, ptr noundef nonnull align 4 dereferenceable(5) %6)
  ret i1 %7
}

; Function Attrs: mustprogress nounwind uwtable
define linkonce_odr hidden noundef zeroext i1 @_ZNK8facebook4yoga15StyleSizeLength9isDefinedEv(ptr noundef nonnull align 4 dereferenceable(5) %0) #7 comdat align 2 {
  %2 = alloca ptr, align 8
  store ptr %0, ptr %2, align 8, !tbaa !131
  %3 = load ptr, ptr %2, align 8
  %4 = call noundef zeroext i1 @_ZNK8facebook4yoga15StyleSizeLength11isUndefinedEv(ptr noundef nonnull align 4 dereferenceable(5) %3)
  %5 = xor i1 %4, true
  ret i1 %5
}

; Function Attrs: mustprogress nounwind uwtable
define linkonce_odr hidden noundef ptr @_ZNKSt16initializer_listIN8facebook4yoga9DimensionEE3endEv(ptr noundef nonnull align 8 dereferenceable(16) %0) #7 comdat align 2 {
  %2 = alloca ptr, align 8
  store ptr %0, ptr %2, align 8, !tbaa !141
  %3 = load ptr, ptr %2, align 8
  %4 = call noundef ptr @_ZNKSt16initializer_listIN8facebook4yoga9DimensionEE5beginEv(ptr noundef nonnull align 8 dereferenceable(16) %3) #3
  %5 = call noundef i64 @_ZNKSt16initializer_listIN8facebook4yoga9DimensionEE4sizeEv(ptr noundef nonnull align 8 dereferenceable(16) %3) #3
  %6 = getelementptr inbounds nuw i8, ptr %4, i64 %5
  ret ptr %6
}

; Function Attrs: mustprogress nounwind uwtable
define linkonce_odr hidden noundef ptr @_ZNKSt16initializer_listIN8facebook4yoga9DimensionEE5beginEv(ptr noundef nonnull align 8 dereferenceable(16) %0) #7 comdat align 2 {
  %2 = alloca ptr, align 8
  store ptr %0, ptr %2, align 8, !tbaa !141
  %3 = load ptr, ptr %2, align 8
  %4 = getelementptr inbounds nuw %"class.std::initializer_list", ptr %3, i32 0, i32 0
  %5 = load ptr, ptr %4, align 8, !tbaa !138
  ret ptr %5
}

; Function Attrs: mustprogress uwtable
define void @_ZN8facebook4yoga4Node17processDimensionsEv(ptr noundef nonnull align 8 dereferenceable(584) %0) #4 align 2 {
  %2 = alloca ptr, align 8
  %3 = alloca ptr, align 8
  %4 = alloca %"class.std::initializer_list", align 8
  %5 = alloca [2 x i8], align 1
  %6 = alloca ptr, align 8
  %7 = alloca ptr, align 8
  %8 = alloca i8, align 1
  %9 = alloca %"class.facebook::yoga::StyleSizeLength", align 4
  %10 = alloca %"class.facebook::yoga::StyleSizeLength", align 4
  %11 = alloca %"class.facebook::yoga::StyleSizeLength", align 4
  %12 = alloca %"class.facebook::yoga::StyleSizeLength", align 4
  %13 = alloca %"class.facebook::yoga::StyleSizeLength", align 4
  store ptr %0, ptr %2, align 8, !tbaa !4
  %14 = load ptr, ptr %2, align 8
  call void @llvm.lifetime.start.p0(i64 8, ptr %3) #3
  call void @llvm.lifetime.start.p0(i64 16, ptr %4) #3
  call void @llvm.lifetime.start.p0(i64 2, ptr %5) #3
  store i8 0, ptr %5, align 1, !tbaa !104
  %15 = getelementptr inbounds i8, ptr %5, i64 1
  store i8 1, ptr %15, align 1, !tbaa !104
  %16 = getelementptr inbounds nuw %"class.std::initializer_list", ptr %4, i32 0, i32 0
  store ptr %5, ptr %16, align 8, !tbaa !138
  %17 = getelementptr inbounds nuw %"class.std::initializer_list", ptr %4, i32 0, i32 1
  store i64 2, ptr %17, align 8, !tbaa !140
  store ptr %4, ptr %3, align 8, !tbaa !141
  call void @llvm.lifetime.start.p0(i64 8, ptr %6) #3
  %18 = load ptr, ptr %3, align 8, !tbaa !141
  %19 = call noundef ptr @_ZNKSt16initializer_listIN8facebook4yoga9DimensionEE5beginEv(ptr noundef nonnull align 8 dereferenceable(16) %18) #3
  store ptr %19, ptr %6, align 8, !tbaa !106
  call void @llvm.lifetime.start.p0(i64 8, ptr %7) #3
  %20 = load ptr, ptr %3, align 8, !tbaa !141
  %21 = call noundef ptr @_ZNKSt16initializer_listIN8facebook4yoga9DimensionEE3endEv(ptr noundef nonnull align 8 dereferenceable(16) %20) #3
  store ptr %21, ptr %7, align 8, !tbaa !106
  br label %22

22:                                               ; preds = %68, %1
  %23 = load ptr, ptr %6, align 8, !tbaa !106
  %24 = load ptr, ptr %7, align 8, !tbaa !106
  %25 = icmp ne ptr %23, %24
  br i1 %25, label %27, label %26

26:                                               ; preds = %22
  call void @llvm.lifetime.end.p0(i64 8, ptr %7) #3
  call void @llvm.lifetime.end.p0(i64 8, ptr %6) #3
  call void @llvm.lifetime.end.p0(i64 2, ptr %5) #3
  call void @llvm.lifetime.end.p0(i64 16, ptr %4) #3
  call void @llvm.lifetime.end.p0(i64 8, ptr %3) #3
  br label %71

27:                                               ; preds = %22
  call void @llvm.lifetime.start.p0(i64 1, ptr %8) #3
  %28 = load ptr, ptr %6, align 8, !tbaa !106
  %29 = load i8, ptr %28, align 1, !tbaa !104
  store i8 %29, ptr %8, align 1, !tbaa !104
  call void @llvm.lifetime.start.p0(i64 8, ptr %9) #3
  %30 = getelementptr inbounds nuw %"class.facebook::yoga::Node", ptr %14, i32 0, i32 5
  %31 = load i8, ptr %8, align 1, !tbaa !104
  %32 = call i64 @_ZNK8facebook4yoga5Style12maxDimensionENS0_9DimensionE(ptr noundef nonnull align 8 dereferenceable(144) %30, i8 noundef zeroext %31)
  %33 = trunc i64 %32 to i40
  store i40 %33, ptr %9, align 4
  %34 = call noundef zeroext i1 @_ZNK8facebook4yoga15StyleSizeLength9isDefinedEv(ptr noundef nonnull align 4 dereferenceable(5) %9)
  call void @llvm.lifetime.start.p0(i64 8, ptr %10) #3
  call void @llvm.lifetime.start.p0(i64 8, ptr %11) #3
  br i1 %34, label %35, label %45

35:                                               ; preds = %27
  %36 = getelementptr inbounds nuw %"class.facebook::yoga::Node", ptr %14, i32 0, i32 5
  %37 = load i8, ptr %8, align 1, !tbaa !104
  %38 = call i64 @_ZNK8facebook4yoga5Style12maxDimensionENS0_9DimensionE(ptr noundef nonnull align 8 dereferenceable(144) %36, i8 noundef zeroext %37)
  %39 = trunc i64 %38 to i40
  store i40 %39, ptr %10, align 4
  %40 = getelementptr inbounds nuw %"class.facebook::yoga::Node", ptr %14, i32 0, i32 5
  %41 = load i8, ptr %8, align 1, !tbaa !104
  %42 = call i64 @_ZNK8facebook4yoga5Style12minDimensionENS0_9DimensionE(ptr noundef nonnull align 8 dereferenceable(144) %40, i8 noundef zeroext %41)
  %43 = trunc i64 %42 to i40
  store i40 %43, ptr %11, align 4
  %44 = call noundef zeroext i1 @_ZN8facebook4yoga13inexactEqualsERKNS0_15StyleSizeLengthES3_(ptr noundef nonnull align 4 dereferenceable(5) %10, ptr noundef nonnull align 4 dereferenceable(5) %11)
  br label %45

45:                                               ; preds = %35, %27
  %46 = phi i1 [ false, %27 ], [ %44, %35 ]
  call void @llvm.lifetime.end.p0(i64 8, ptr %11) #3
  call void @llvm.lifetime.end.p0(i64 8, ptr %10) #3
  call void @llvm.lifetime.end.p0(i64 8, ptr %9) #3
  br i1 %46, label %47, label %57

47:                                               ; preds = %45
  call void @llvm.lifetime.start.p0(i64 8, ptr %12) #3
  %48 = getelementptr inbounds nuw %"class.facebook::yoga::Node", ptr %14, i32 0, i32 5
  %49 = load i8, ptr %8, align 1, !tbaa !104
  %50 = call i64 @_ZNK8facebook4yoga5Style12maxDimensionENS0_9DimensionE(ptr noundef nonnull align 8 dereferenceable(144) %48, i8 noundef zeroext %49)
  %51 = trunc i64 %50 to i40
  store i40 %51, ptr %12, align 4
  %52 = getelementptr inbounds nuw %"class.facebook::yoga::Node", ptr %14, i32 0, i32 12
  %53 = load i8, ptr %8, align 1, !tbaa !104
  %54 = call noundef zeroext i8 @_ZN8facebook4yoga13to_underlyingITkNS0_11EnumerationENS0_9DimensionEEEDaT_(i8 noundef zeroext %53) #3
  %55 = zext i8 %54 to i64
  %56 = call noundef nonnull align 4 dereferenceable(5) ptr @_ZNSt5arrayIN8facebook4yoga15StyleSizeLengthELm2EEixEm(ptr noundef nonnull align 4 dereferenceable(16) %52, i64 noundef %55) #3
  call void @llvm.memcpy.p0.p0.i64(ptr align 4 %56, ptr align 4 %12, i64 5, i1 false), !tbaa.struct !126
  call void @llvm.lifetime.end.p0(i64 8, ptr %12) #3
  br label %67

57:                                               ; preds = %45
  call void @llvm.lifetime.start.p0(i64 8, ptr %13) #3
  %58 = getelementptr inbounds nuw %"class.facebook::yoga::Node", ptr %14, i32 0, i32 5
  %59 = load i8, ptr %8, align 1, !tbaa !104
  %60 = call i64 @_ZNK8facebook4yoga5Style9dimensionENS0_9DimensionE(ptr noundef nonnull align 8 dereferenceable(144) %58, i8 noundef zeroext %59)
  %61 = trunc i64 %60 to i40
  store i40 %61, ptr %13, align 4
  %62 = getelementptr inbounds nuw %"class.facebook::yoga::Node", ptr %14, i32 0, i32 12
  %63 = load i8, ptr %8, align 1, !tbaa !104
  %64 = call noundef zeroext i8 @_ZN8facebook4yoga13to_underlyingITkNS0_11EnumerationENS0_9DimensionEEEDaT_(i8 noundef zeroext %63) #3
  %65 = zext i8 %64 to i64
  %66 = call noundef nonnull align 4 dereferenceable(5) ptr @_ZNSt5arrayIN8facebook4yoga15StyleSizeLengthELm2EEixEm(ptr noundef nonnull align 4 dereferenceable(16) %62, i64 noundef %65) #3
  call void @llvm.memcpy.p0.p0.i64(ptr align 4 %66, ptr align 4 %13, i64 5, i1 false), !tbaa.struct !126
  call void @llvm.lifetime.end.p0(i64 8, ptr %13) #3
  br label %67

67:                                               ; preds = %57, %47
  call void @llvm.lifetime.end.p0(i64 1, ptr %8) #3
  br label %68

68:                                               ; preds = %67
  %69 = load ptr, ptr %6, align 8, !tbaa !106
  %70 = getelementptr inbounds nuw i8, ptr %69, i32 1
  store ptr %70, ptr %6, align 8, !tbaa !106
  br label %22

71:                                               ; preds = %26
  ret void
}