; Function Attrs: mustprogress uwtable
define void @_ZN8facebook4yoga4Node17processDimensionsEv(ptr noundef nonnull align 8 dereferenceable(584) %0) local_unnamed_addr #3 align 2 {
  %2 = alloca [2 x i8], align 1
  call void @llvm.lifetime.start.p0(i64 2, ptr nonnull %2) #25
  store i8 0, ptr %2, align 1, !tbaa !103
  %3 = getelementptr inbounds nuw i8, ptr %2, i64 1
  store i8 1, ptr %3, align 1, !tbaa !103
  %4 = getelementptr inbounds nuw i8, ptr %0, i64 40
  %5 = getelementptr inbounds nuw i8, ptr %0, i64 568
  br label %7

6:                                                ; preds = %28
  call void @llvm.lifetime.end.p0(i64 2, ptr nonnull %2) #25
  ret void

7:                                                ; preds = %1, %28
  %.0.idx25 = phi i64 [ 0, %1 ], [ %.0.add, %28 ]
  %.0.ptr = getelementptr inbounds nuw i8, ptr %2, i64 %.0.idx25
  %8 = load i8, ptr %.0.ptr, align 1, !tbaa !103
  %9 = tail call i64 @_ZNK8facebook4yoga5Style12maxDimensionENS0_9DimensionE(ptr noundef nonnull align 8 dereferenceable(144) %4, i8 noundef zeroext %8)
  %10 = and i64 %9, 1095216660480
  %.not22 = icmp eq i64 %10, 0
  br i1 %.not22, label %.critedge, label %11

11:                                               ; preds = %7
  %12 = tail call i64 @_ZNK8facebook4yoga5Style12maxDimensionENS0_9DimensionE(ptr noundef nonnull align 8 dereferenceable(144) %4, i8 noundef zeroext %8)
  %.sroa.0.sroa.016.0.extract.trunc = trunc i64 %12 to i32
  %13 = bitcast i32 %.sroa.0.sroa.016.0.extract.trunc to float
  %.sroa.0.sroa.517.0.extract.shift23 = lshr i64 %12, 32
  %.sroa.0.sroa.517.0.extract.trunc = trunc i64 %.sroa.0.sroa.517.0.extract.shift23 to i8
  %14 = tail call i64 @_ZNK8facebook4yoga5Style12minDimensionENS0_9DimensionE(ptr noundef nonnull align 8 dereferenceable(144) %4, i8 noundef zeroext %8)
  %.sroa.0.sroa.0.0.extract.trunc = trunc i64 %14 to i32
  %15 = bitcast i32 %.sroa.0.sroa.0.0.extract.trunc to float
  %.sroa.0.sroa.5.0.extract.shift24 = lshr i64 %14, 32
  %.sroa.0.sroa.5.0.extract.trunc = trunc i64 %.sroa.0.sroa.5.0.extract.shift24 to i8
  %16 = icmp eq i8 %.sroa.0.sroa.517.0.extract.trunc, %.sroa.0.sroa.5.0.extract.trunc
  br i1 %16, label %17, label %.critedge

17:                                               ; preds = %11
  %or.cond.i.i.i.i = fcmp ord float %13, %15
  br i1 %or.cond.i.i.i.i, label %18, label %22

18:                                               ; preds = %17
  %19 = fsub float %13, %15
  %20 = tail call noundef float @llvm.fabs.f32(float %19)
  %21 = fcmp olt float %20, 0x3F1A36E2E0000000
  br i1 %21, label %25, label %.critedge

22:                                               ; preds = %17
  %23 = fcmp uno float %13, 0.000000e+00
  %24 = fcmp uno float %15, 0.000000e+00
  %or.cond = and i1 %23, %24
  br i1 %or.cond, label %25, label %.critedge

25:                                               ; preds = %22, %18
  %26 = tail call i64 @_ZNK8facebook4yoga5Style12maxDimensionENS0_9DimensionE(ptr noundef nonnull align 8 dereferenceable(144) %4, i8 noundef zeroext %8)
  br label %28

.critedge:                                        ; preds = %22, %11, %7, %18
  %27 = tail call i64 @_ZNK8facebook4yoga5Style9dimensionENS0_9DimensionE(ptr noundef nonnull align 8 dereferenceable(144) %4, i8 noundef zeroext %8)
  br label %28

28:                                               ; preds = %.critedge, %25
  %.sink28 = phi i64 [ %27, %.critedge ], [ %26, %25 ]
  %29 = trunc i64 %.sink28 to i40
  %30 = zext i8 %8 to i64
  %31 = getelementptr inbounds nuw [2 x %"class.facebook::yoga::StyleSizeLength"], ptr %5, i64 0, i64 %30
  store i40 %29, ptr %31, align 8
  %.0.add = add nuw nsw i64 %.0.idx25, 1
  %.not = icmp eq i64 %.0.add, 2
  br i1 %.not, label %6, label %7
}